target datalayout = "e-m:e-p270:32:32-p271:32:32-p272:64:64-i64:64-i128:128-f80:128-n8:16:32:64-S128"
target triple = "x86_64-pc-linux-gnu"

%class.ShotValue = type <{ %class.Value, %"class.vcg::Shot", [4 x i8] }>
%class.Value = type { ptr }
%"class.vcg::Shot" = type { %"class.vcg::Camera", %"class.vcg::Shot<float>::ReferenceFrame" }
%"class.vcg::Camera" = type { float, %"class.vcg::Point2", %"class.vcg::Point2.0", %"class.vcg::Point2.0", %"class.vcg::Point2.0", %"struct.std::array.1", i32 }
%"class.vcg::Point2" = type { [2 x i32] }
%"class.vcg::Point2.0" = type { [2 x float] }
%"struct.std::array.1" = type { [4 x float] }
%"class.vcg::Shot<float>::ReferenceFrame" = type { %"class.vcg::Matrix44", %"class.vcg::Point3" }
%"class.vcg::Matrix44" = type { %"struct.std::array" }
%"struct.std::array" = type { [16 x float] }
%"class.vcg::Point3" = type { [3 x float] }

; Function Attrs: mustprogress nounwind uwtable
define linkonce_odr void @_ZN3vcg8Matrix44IfED2Ev(ptr noundef nonnull align 4 dereferenceable(64) %0) unnamed_addr #0 comdat align 2 {
  %2 = alloca ptr, align 8
  store ptr %0, ptr %2, align 8
  ret void
}

; Function Attrs: mustprogress nounwind uwtable
define linkonce_odr void @_ZN3vcg4ShotIfNS_8Matrix44IfEEE14ReferenceFrameD2Ev(ptr noundef nonnull align 4 dereferenceable(76) %0) unnamed_addr #0 comdat align 2 {
  %2 = alloca ptr, align 8
  store ptr %0, ptr %2, align 8
  %3 = load ptr, ptr %2, align 8
  %4 = getelementptr inbounds %"class.vcg::Shot<float>::ReferenceFrame", ptr %3, i32 0, i32 0
  call void @_ZN3vcg8Matrix44IfED2Ev(ptr noundef nonnull align 4 dereferenceable(64) %4) #5
  ret void
}

; Function Attrs: mustprogress nounwind uwtable
define linkonce_odr void @_ZN3vcg4ShotIfNS_8Matrix44IfEEED2Ev(ptr noundef nonnull align 4 dereferenceable(132) %0) unnamed_addr #0 comdat align 2 {
  %2 = alloca ptr, align 8
  store ptr %0, ptr %2, align 8
  %3 = load ptr, ptr %2, align 8
  %4 = getelementptr inbounds %"class.vcg::Shot", ptr %3, i32 0, i32 1
  call void @_ZN3vcg4ShotIfNS_8Matrix44IfEEE14ReferenceFrameD2Ev(ptr noundef nonnull align 4 dereferenceable(76) %4) #5
  ret void
}

; Function Attrs: mustprogress uwtable
define noundef zeroext i1 @_ZNK9ShotValueeqERK5Value(ptr noundef nonnull align 8 dereferenceable(140) %0, ptr noundef nonnull align 8 dereferenceable(8) %1) unnamed_addr #1 align 2 personality ptr @__gxx_personality_v0 {
  %3 = alloca i1, align 1
  %4 = alloca ptr, align 8
  %5 = alloca ptr, align 8
  %6 = alloca %"class.vcg::Shot", align 4
  %7 = alloca ptr, align 8
  %8 = alloca i32, align 4
  store ptr %0, ptr %4, align 8
  store ptr %1, ptr %5, align 8
  %9 = load ptr, ptr %4, align 8
  %10 = load ptr, ptr %5, align 8
  %11 = load ptr, ptr %10, align 8
  %12 = getelementptr inbounds ptr, ptr %11, i64 16
  %13 = load ptr, ptr %12, align 8
  %14 = call noundef zeroext i1 %13(ptr noundef nonnull align 8 dereferenceable(8) %10)
  br i1 %14, label %15, label %27

15:                                               ; preds = %2
  %16 = getelementptr inbounds %class.ShotValue, ptr %9, i32 0, i32 1
  %17 = load ptr, ptr %5, align 8
  %18 = load ptr, ptr %17, align 8
  %19 = getelementptr inbounds ptr, ptr %18, i64 8
  %20 = load ptr, ptr %19, align 8
  call void %20(ptr dead_on_unwind writable sret(%"class.vcg::Shot") align 4 %6, ptr noundef nonnull align 8 dereferenceable(8) %17)
  %21 = invoke noundef zeroext i1 @_ZNK3vcg4ShotIfNS_8Matrix44IfEEEeqERKS3_(ptr noundef nonnull align 4 dereferenceable(132) %16, ptr noundef nonnull align 4 dereferenceable(132) %6)
          to label %22 unwind label %23

22:                                               ; preds = %15
  store i1 %21, ptr %3, align 1
  call void @_ZN3vcg4ShotIfNS_8Matrix44IfEEED2Ev(ptr noundef nonnull align 4 dereferenceable(132) %6) #5
  br label %28

23:                                               ; preds = %15
  %24 = landingpad { ptr, i32 }
          cleanup
  %25 = extractvalue { ptr, i32 } %24, 0
  store ptr %25, ptr %7, align 8
  %26 = extractvalue { ptr, i32 } %24, 1
  store i32 %26, ptr %8, align 4
  call void @_ZN3vcg4ShotIfNS_8Matrix44IfEEED2Ev(ptr noundef nonnull align 4 dereferenceable(132) %6) #5
  br label %30

27:                                               ; preds = %2
  store i1 false, ptr %3, align 1
  br label %28

28:                                               ; preds = %27, %22
  %29 = load i1, ptr %3, align 1
  ret i1 %29

30:                                               ; preds = %23
  %31 = load ptr, ptr %7, align 8
  %32 = load i32, ptr %8, align 4
  %33 = insertvalue { ptr, i32 } poison, ptr %31, 0
  %34 = insertvalue { ptr, i32 } %33, i32 %32, 1
  resume { ptr, i32 } %34
}