; Function Attrs: mustprogress uwtable
define noundef zeroext i1 @_ZNK9ShotValueeqERK5Value(ptr noundef nonnull align 8 dereferenceable(140) %0, ptr noundef nonnull align 8 dereferenceable(8) %1) unnamed_addr #1 align 2 personality ptr @__gxx_personality_v0 {
  %3 = alloca %"class.vcg::Shot", align 4
  %4 = load ptr, ptr %1, align 8
  %5 = getelementptr inbounds i8, ptr %4, i64 128
  %6 = load ptr, ptr %5, align 8
  %7 = tail call noundef zeroext i1 %6(ptr noundef nonnull align 8 dereferenceable(8) %1)
  br i1 %7, label %8, label %14

8:                                                ; preds = %2
  %9 = getelementptr inbounds i8, ptr %0, i64 8
  %10 = load ptr, ptr %1, align 8
  %11 = getelementptr inbounds i8, ptr %10, i64 64
  %12 = load ptr, ptr %11, align 8
  call void %12(ptr dead_on_unwind nonnull writable sret(%"class.vcg::Shot") align 4 %3, ptr noundef nonnull align 8 dereferenceable(8) %1)
  %13 = call noundef zeroext i1 @_ZNK3vcg4ShotIfNS_8Matrix44IfEEEeqERKS3_(ptr noundef nonnull align 4 dereferenceable(132) %9, ptr noundef nonnull align 4 dereferenceable(132) %3)
  br label %14

14:                                               ; preds = %8, %2
  %.0 = phi i1 [ false, %2 ], [ %13, %8 ]
  ret i1 %.0
}